; Function Attrs: mustprogress nounwind uwtable
define hidden noundef ptr @_ZN14ClassPrelinker17find_loaded_classEP6ThreadP7oopDescP6Symbol(ptr noundef %0, ptr noundef %1, ptr noundef %2) local_unnamed_addr #1 align 2 {
  %4 = alloca %class.HandleMark, align 8
  call void @_ZN10HandleMark10initializeEP6Thread(ptr noundef nonnull align 8 dereferenceable(56) %4, ptr noundef %0) #10
  %5 = icmp eq ptr %1, null
  br i1 %5, label %_ZN6HandleC2EP6ThreadP7oopDesc.exit.thread, label %6

6:                                                ; preds = %3
  %7 = getelementptr inbounds i8, ptr %0, i64 808
  %8 = load ptr, ptr %7, align 8
  %9 = getelementptr inbounds i8, ptr %8, i64 40
  %10 = load ptr, ptr %9, align 8
  %11 = getelementptr inbounds i8, ptr %8, i64 32
  %12 = load ptr, ptr %11, align 8
  %13 = ptrtoint ptr %10 to i64
  %14 = ptrtoint ptr %12 to i64
  %15 = sub i64 %13, %14
  %.not.i.i.i.i = icmp ult i64 %15, 8
  br i1 %.not.i.i.i.i, label %18, label %16

16:                                               ; preds = %6
  %17 = getelementptr inbounds i8, ptr %12, i64 8
  store ptr %17, ptr %11, align 8
  br label %_ZN6HandleC2EP6ThreadP7oopDesc.exit

18:                                               ; preds = %6
  %19 = call noundef ptr @_ZN5Arena4growEmN17AllocFailStrategy13AllocFailEnumE(ptr noundef nonnull align 8 dereferenceable(48) %8, i64 noundef 8, i32 noundef 0) #10
  br label %_ZN6HandleC2EP6ThreadP7oopDesc.exit

_ZN6HandleC2EP6ThreadP7oopDesc.exit:              ; preds = %16, %18
  %.0.i.i.i.i = phi ptr [ %12, %16 ], [ %19, %18 ]
  store ptr %1, ptr %.0.i.i.i.i, align 8
  %20 = call noundef ptr @_ZN16SystemDictionary28find_instance_or_array_klassEP6ThreadP6Symbol6HandleS4_(ptr noundef nonnull %0, ptr noundef %2, ptr nonnull %.0.i.i.i.i, ptr null) #10
  %.not = icmp eq ptr %20, null
  br i1 %.not, label %_ZNK6HandleclEv.exit.thread, label %35

_ZN6HandleC2EP6ThreadP7oopDesc.exit.thread:       ; preds = %3
  %21 = call noundef ptr @_ZN16SystemDictionary28find_instance_or_array_klassEP6ThreadP6Symbol6HandleS4_(ptr noundef %0, ptr noundef %2, ptr null, ptr null) #10
  %.not17 = icmp eq ptr %21, null
  br i1 %.not17, label %_ZNK6HandleclEv.exit, label %35

_ZNK6HandleclEv.exit:                             ; preds = %_ZN6HandleC2EP6ThreadP7oopDesc.exit.thread
  %22 = call noundef ptr @_ZN16SystemDictionary18java_system_loaderEv() #10
  %23 = icmp eq ptr %22, null
  br i1 %23, label %27, label %_ZNK6HandleclEv.exit13

_ZNK6HandleclEv.exit.thread:                      ; preds = %_ZN6HandleC2EP6ThreadP7oopDesc.exit
  %24 = load ptr, ptr %.0.i.i.i.i, align 8
  %25 = call noundef ptr @_ZN16SystemDictionary18java_system_loaderEv() #10
  %26 = icmp eq ptr %24, %25
  br i1 %26, label %27, label %29

27:                                               ; preds = %_ZNK6HandleclEv.exit.thread, %_ZNK6HandleclEv.exit
  %28 = call noundef ptr @_ZN16SystemDictionary20java_platform_loaderEv() #10
  br label %.sink.split

29:                                               ; preds = %_ZNK6HandleclEv.exit.thread
  %30 = load ptr, ptr %.0.i.i.i.i, align 8
  br label %_ZNK6HandleclEv.exit13

_ZNK6HandleclEv.exit13:                           ; preds = %_ZNK6HandleclEv.exit, %29
  %31 = phi ptr [ %30, %29 ], [ null, %_ZNK6HandleclEv.exit ]
  %32 = call noundef ptr @_ZN16SystemDictionary20java_platform_loaderEv() #10
  %33 = icmp eq ptr %31, %32
  br i1 %33, label %.sink.split, label %35

.sink.split:                                      ; preds = %_ZNK6HandleclEv.exit13, %27
  %.sink = phi ptr [ %28, %27 ], [ null, %_ZNK6HandleclEv.exit13 ]
  %34 = call noundef ptr @_ZN14ClassPrelinker17find_loaded_classEP6ThreadP7oopDescP6Symbol(ptr noundef %0, ptr noundef %.sink, ptr noundef %2)
  br label %35

35:                                               ; preds = %.sink.split, %_ZN6HandleC2EP6ThreadP7oopDesc.exit.thread, %_ZNK6HandleclEv.exit13, %_ZN6HandleC2EP6ThreadP7oopDesc.exit
  %.0 = phi ptr [ %20, %_ZN6HandleC2EP6ThreadP7oopDesc.exit ], [ null, %_ZNK6HandleclEv.exit13 ], [ %21, %_ZN6HandleC2EP6ThreadP7oopDesc.exit.thread ], [ %34, %.sink.split ]
  call void @_ZN10HandleMarkD1Ev(ptr noundef nonnull align 8 dereferenceable(56) %4) #10
  ret ptr %.0
}